target datalayout = "e-m:e-p270:32:32-p271:32:32-p272:64:64-i64:64-i128:128-f80:128-n8:16:32:64-S128"
target triple = "x86_64-pc-linux-gnu"

@hf_nas_eps_emm_wus_assist_info_type = internal global i32 0, align 4
@hf_nas_eps_emm_wus_assist_info_ue_paging_prob = internal global i32 0, align 4
@ett_nas_eps_wus_assist_info_type = internal global i32 0, align 4
@.str.1026 = private unnamed_addr constant [35 x i8] c"WUS assistance information type %u\00", align 1

; Function Attrs: null_pointer_is_valid sspstrong uwtable
define internal zeroext i16 @de_emm_wus_assist_info(ptr noundef %0, ptr noundef %1, ptr noundef %2, i32 noundef %3, i32 noundef %4, ptr noundef %5, i32 noundef %6) #1 {
  %8 = alloca ptr, align 8
  %9 = alloca ptr, align 8
  %10 = alloca ptr, align 8
  %11 = alloca i32, align 4
  %12 = alloca i32, align 4
  %13 = alloca ptr, align 8
  %14 = alloca i32, align 4
  %15 = alloca i32, align 4
  %16 = alloca i32, align 4
  %17 = alloca i32, align 4
  %18 = alloca ptr, align 8
  store ptr %0, ptr %8, align 8
  store ptr %1, ptr %9, align 8
  store ptr %2, ptr %10, align 8
  store i32 %3, ptr %11, align 4
  store i32 %4, ptr %12, align 4
  store ptr %5, ptr %13, align 8
  store i32 %6, ptr %14, align 4
  call void @llvm.lifetime.start.p0(i64 4, ptr %15) #10
  %19 = load i32, ptr %11, align 4
  store i32 %19, ptr %15, align 4
  call void @llvm.lifetime.start.p0(i64 4, ptr %16) #10
  store i32 1, ptr %16, align 4
  br label %20

20:                                               ; preds = %46, %7
  %21 = load i32, ptr %15, align 4
  %22 = load i32, ptr %11, align 4
  %23 = sub i32 %21, %22
  %24 = load i32, ptr %12, align 4
  %25 = icmp ult i32 %23, %24
  br i1 %25, label %26, label %51

26:                                               ; preds = %20
  call void @llvm.lifetime.start.p0(i64 4, ptr %17) #10
  call void @llvm.lifetime.start.p0(i64 8, ptr %18) #10
  %27 = load ptr, ptr %9, align 8
  %28 = load ptr, ptr %8, align 8
  %29 = load i32, ptr %15, align 4
  %30 = load i32, ptr @ett_nas_eps_wus_assist_info_type, align 4
  %31 = load i32, ptr %16, align 4
  %32 = call ptr (ptr, ptr, i32, i32, i32, ptr, ptr, ...) @proto_tree_add_subtree_format(ptr noundef %27, ptr noundef %28, i32 noundef %29, i32 noundef 1, i32 noundef %30, ptr noundef null, ptr noundef @.str.1026, i32 noundef %31)
  store ptr %32, ptr %18, align 8
  %33 = load ptr, ptr %18, align 8
  %34 = load i32, ptr @hf_nas_eps_emm_wus_assist_info_type, align 4
  %35 = load ptr, ptr %8, align 8
  %36 = load i32, ptr %15, align 4
  %37 = call ptr @proto_tree_add_item_ret_uint(ptr noundef %33, i32 noundef %34, ptr noundef %35, i32 noundef %36, i32 noundef 1, i32 noundef 0, ptr noundef %17)
  %38 = load i32, ptr %17, align 4
  %39 = icmp eq i32 %38, 0
  br i1 %39, label %40, label %46

40:                                               ; preds = %26
  %41 = load ptr, ptr %18, align 8
  %42 = load i32, ptr @hf_nas_eps_emm_wus_assist_info_ue_paging_prob, align 4
  %43 = load ptr, ptr %8, align 8
  %44 = load i32, ptr %15, align 4
  %45 = call ptr @proto_tree_add_item(ptr noundef %41, i32 noundef %42, ptr noundef %43, i32 noundef %44, i32 noundef 1, i32 noundef 0)
  br label %46

46:                                               ; preds = %40, %26
  %47 = load i32, ptr %15, align 4
  %48 = add i32 %47, 1
  store i32 %48, ptr %15, align 4
  %49 = load i32, ptr %16, align 4
  %50 = add i32 %49, 1
  store i32 %50, ptr %16, align 4
  call void @llvm.lifetime.end.p0(i64 8, ptr %18) #10
  call void @llvm.lifetime.end.p0(i64 4, ptr %17) #10
  br label %20, !llvm.loop !14

51:                                               ; preds = %20
  %52 = load i32, ptr %12, align 4
  %53 = trunc i32 %52 to i16
  call void @llvm.lifetime.end.p0(i64 4, ptr %16) #10
  call void @llvm.lifetime.end.p0(i64 4, ptr %15) #10
  ret i16 %53
}