; Function Attrs: null_pointer_is_valid sspstrong uwtable
define internal noundef zeroext i16 @de_emm_wus_assist_info(ptr noundef %0, ptr noundef %1, ptr readnone captures(none) %2, i32 noundef %3, i32 noundef %4, ptr readnone captures(none) %5, i32 %6) #1 {
  %8 = alloca i32, align 4
  %.not = icmp eq i32 %4, 0
  br i1 %.not, label %._crit_edge, label %.lr.ph

.lr.ph:                                           ; preds = %7, %18
  %.019 = phi i32 [ %19, %18 ], [ %3, %7 ]
  %.01618 = phi i32 [ %20, %18 ], [ 1, %7 ]
  call void @llvm.lifetime.start.p0(i64 4, ptr nonnull %8) #10
  %9 = load i32, ptr @ett_nas_eps_wus_assist_info_type, align 4
  %10 = call ptr (ptr, ptr, i32, i32, i32, ptr, ptr, ...) @proto_tree_add_subtree_format(ptr noundef %1, ptr noundef %0, i32 noundef %.019, i32 noundef 1, i32 noundef %9, ptr noundef null, ptr noundef nonnull @.str.1026, i32 noundef %.01618)
  %11 = load i32, ptr @hf_nas_eps_emm_wus_assist_info_type, align 4
  %12 = call ptr @proto_tree_add_item_ret_uint(ptr noundef %10, i32 noundef %11, ptr noundef %0, i32 noundef %.019, i32 noundef 1, i32 noundef 0, ptr noundef nonnull %8)
  %13 = load i32, ptr %8, align 4
  %14 = icmp eq i32 %13, 0
  br i1 %14, label %15, label %18

15:                                               ; preds = %.lr.ph
  %16 = load i32, ptr @hf_nas_eps_emm_wus_assist_info_ue_paging_prob, align 4
  %17 = call ptr @proto_tree_add_item(ptr noundef %10, i32 noundef %16, ptr noundef %0, i32 noundef %.019, i32 noundef 1, i32 noundef 0)
  br label %18

18:                                               ; preds = %15, %.lr.ph
  %19 = add i32 %.019, 1
  %20 = add i32 %.01618, 1
  call void @llvm.lifetime.end.p0(i64 4, ptr nonnull %8) #10
  %exitcond.not = icmp eq i32 %.01618, %4
  br i1 %exitcond.not, label %._crit_edge, label %.lr.ph, !llvm.loop !14

._crit_edge:                                      ; preds = %18, %7
  %21 = trunc i32 %4 to i16
  ret i16 %21
}